target datalayout = "e-m:e-p270:32:32-p271:32:32-p272:64:64-i64:64-i128:128-f80:128-n8:16:32:64-S128"
target triple = "x86_64-unknown-linux-gnu"

%class.act_cache = type <{ ptr, %class.cmap, %class.svector, i32, i32, i32, [4 x i8] }>
%class.cmap = type { %class.chashtable }
%class.chashtable = type { ptr, i32, i32, i32, i32, i32, i32, i32, ptr, ptr, ptr }
%class.svector = type { %class.vector }
%class.vector = type { ptr }
%"struct.std::pair" = type <{ ptr, i32, [4 x i8] }>

; Function Attrs: mustprogress nounwind uwtable
define linkonce_odr hidden void @_ZN6vectorISt4pairIP4exprjELb0EjE6shrinkEj(ptr noundef nonnull align 8 dereferenceable(8) %this, i32 noundef %s) #5 comdat align 2 {
entry:
  %this.addr = alloca ptr, align 8
  %s.addr = alloca i32, align 4
  store ptr %this, ptr %this.addr, align 8
  store i32 %s, ptr %s.addr, align 4
  %this1 = load ptr, ptr %this.addr, align 8
  %m_data = getelementptr inbounds %class.vector, ptr %this1, i32 0, i32 0
  %0 = load ptr, ptr %m_data, align 8
  %tobool = icmp ne ptr %0, null
  br i1 %tobool, label %if.then, label %if.else

if.then:                                          ; preds = %entry
  %1 = load i32, ptr %s.addr, align 4
  %m_data2 = getelementptr inbounds %class.vector, ptr %this1, i32 0, i32 0
  %2 = load ptr, ptr %m_data2, align 8
  %arrayidx = getelementptr inbounds i32, ptr %2, i64 -1
  store i32 %1, ptr %arrayidx, align 4
  br label %if.end

if.else:                                          ; preds = %entry
  br label %if.end

if.end:                                           ; preds = %if.else, %if.then
  ret void
}

; Function Attrs: mustprogress nounwind uwtable
define linkonce_odr hidden noundef nonnull align 8 dereferenceable(12) ptr @_ZNSt4pairIP4exprjEaSERKS2_(ptr noundef nonnull align 8 dereferenceable(12) %this, ptr noundef nonnull align 8 dereferenceable(12) %__p) #5 comdat align 2 {
entry:
  %this.addr = alloca ptr, align 8
  %__p.addr = alloca ptr, align 8
  store ptr %this, ptr %this.addr, align 8
  store ptr %__p, ptr %__p.addr, align 8
  %this1 = load ptr, ptr %this.addr, align 8
  %0 = load ptr, ptr %__p.addr, align 8
  %first = getelementptr inbounds %"struct.std::pair", ptr %0, i32 0, i32 0
  %1 = load ptr, ptr %first, align 8
  %first2 = getelementptr inbounds %"struct.std::pair", ptr %this1, i32 0, i32 0
  store ptr %1, ptr %first2, align 8
  %2 = load ptr, ptr %__p.addr, align 8
  %second = getelementptr inbounds %"struct.std::pair", ptr %2, i32 0, i32 1
  %3 = load i32, ptr %second, align 8
  %second3 = getelementptr inbounds %"struct.std::pair", ptr %this1, i32 0, i32 1
  store i32 %3, ptr %second3, align 8
  ret ptr %this1
}

; Function Attrs: mustprogress nounwind uwtable
define linkonce_odr hidden noundef nonnull align 8 dereferenceable(12) ptr @_ZN6vectorISt4pairIP4exprjELb0EjEixEj(ptr noundef nonnull align 8 dereferenceable(8) %this, i32 noundef %idx) #5 comdat align 2 {
entry:
  %this.addr = alloca ptr, align 8
  %idx.addr = alloca i32, align 4
  store ptr %this, ptr %this.addr, align 8
  store i32 %idx, ptr %idx.addr, align 4
  %this1 = load ptr, ptr %this.addr, align 8
  %m_data = getelementptr inbounds %class.vector, ptr %this1, i32 0, i32 0
  %0 = load ptr, ptr %m_data, align 8
  %1 = load i32, ptr %idx.addr, align 4
  %idxprom = zext i32 %1 to i64
  %arrayidx = getelementptr inbounds %"struct.std::pair", ptr %0, i64 %idxprom
  ret ptr %arrayidx
}

; Function Attrs: mustprogress nounwind uwtable
define linkonce_odr hidden noundef i32 @_ZNK6vectorISt4pairIP4exprjELb0EjE4sizeEv(ptr noundef nonnull align 8 dereferenceable(8) %this) #5 comdat align 2 {
entry:
  %retval = alloca i32, align 4
  %this.addr = alloca ptr, align 8
  store ptr %this, ptr %this.addr, align 8
  %this1 = load ptr, ptr %this.addr, align 8
  %m_data = getelementptr inbounds %class.vector, ptr %this1, i32 0, i32 0
  %0 = load ptr, ptr %m_data, align 8
  %cmp = icmp eq ptr %0, null
  br i1 %cmp, label %if.then, label %if.end

if.then:                                          ; preds = %entry
  store i32 0, ptr %retval, align 4
  br label %return

if.end:                                           ; preds = %entry
  %m_data2 = getelementptr inbounds %class.vector, ptr %this1, i32 0, i32 0
  %1 = load ptr, ptr %m_data2, align 8
  %arrayidx = getelementptr inbounds i32, ptr %1, i64 -1
  %2 = load i32, ptr %arrayidx, align 4
  store i32 %2, ptr %retval, align 4
  br label %return

return:                                           ; preds = %if.end, %if.then
  %3 = load i32, ptr %retval, align 4
  ret i32 %3
}

; Function Attrs: mustprogress uwtable
define hidden void @_ZN9act_cache14compress_queueEv(ptr noundef nonnull align 8 dereferenceable(92) %this) #4 align 2 {
entry:
  %this.addr = alloca ptr, align 8
  %sz = alloca i32, align 4
  %j = alloca i32, align 4
  %i = alloca i32, align 4
  store ptr %this, ptr %this.addr, align 8
  %this1 = load ptr, ptr %this.addr, align 8
  %m_queue = getelementptr inbounds %class.act_cache, ptr %this1, i32 0, i32 2
  %call = call noundef i32 @_ZNK6vectorISt4pairIP4exprjELb0EjE4sizeEv(ptr noundef nonnull align 8 dereferenceable(8) %m_queue)
  store i32 %call, ptr %sz, align 4
  store i32 0, ptr %j, align 4
  %m_qhead = getelementptr inbounds %class.act_cache, ptr %this1, i32 0, i32 3
  %0 = load i32, ptr %m_qhead, align 8
  store i32 %0, ptr %i, align 4
  br label %for.cond

for.cond:                                         ; preds = %for.inc, %entry
  %1 = load i32, ptr %i, align 4
  %2 = load i32, ptr %sz, align 4
  %cmp = icmp ult i32 %1, %2
  br i1 %cmp, label %for.body, label %for.end

for.body:                                         ; preds = %for.cond
  %m_queue2 = getelementptr inbounds %class.act_cache, ptr %this1, i32 0, i32 2
  %3 = load i32, ptr %i, align 4
  %call3 = call noundef nonnull align 8 dereferenceable(12) ptr @_ZN6vectorISt4pairIP4exprjELb0EjEixEj(ptr noundef nonnull align 8 dereferenceable(8) %m_queue2, i32 noundef %3)
  %m_queue4 = getelementptr inbounds %class.act_cache, ptr %this1, i32 0, i32 2
  %4 = load i32, ptr %j, align 4
  %call5 = call noundef nonnull align 8 dereferenceable(12) ptr @_ZN6vectorISt4pairIP4exprjELb0EjEixEj(ptr noundef nonnull align 8 dereferenceable(8) %m_queue4, i32 noundef %4)
  %call6 = call noundef nonnull align 8 dereferenceable(12) ptr @_ZNSt4pairIP4exprjEaSERKS2_(ptr noundef nonnull align 8 dereferenceable(12) %call5, ptr noundef nonnull align 8 dereferenceable(12) %call3)
  br label %for.inc

for.inc:                                          ; preds = %for.body
  %5 = load i32, ptr %i, align 4
  %inc = add i32 %5, 1
  store i32 %inc, ptr %i, align 4
  %6 = load i32, ptr %j, align 4
  %inc7 = add i32 %6, 1
  store i32 %inc7, ptr %j, align 4
  br label %for.cond, !llvm.loop !4

for.end:                                          ; preds = %for.cond
  %m_queue8 = getelementptr inbounds %class.act_cache, ptr %this1, i32 0, i32 2
  %7 = load i32, ptr %j, align 4
  call void @_ZN6vectorISt4pairIP4exprjELb0EjE6shrinkEj(ptr noundef nonnull align 8 dereferenceable(8) %m_queue8, i32 noundef %7)
  %m_qhead9 = getelementptr inbounds %class.act_cache, ptr %this1, i32 0, i32 3
  store i32 0, ptr %m_qhead9, align 8
  ret void
}