; Function Attrs: mustprogress nofree norecurse nosync nounwind memory(readwrite, inaccessiblemem: none) uwtable
define hidden void @_ZN9act_cache14compress_queueEv(ptr nocapture noundef nonnull align 8 dereferenceable(92) %this) local_unnamed_addr #3 align 2 {
entry:
  %m_queue = getelementptr inbounds i8, ptr %this, i64 72
  %0 = load ptr, ptr %m_queue, align 8
  %cmp.i = icmp eq ptr %0, null
  br i1 %cmp.i, label %for.end.thread, label %_ZNK6vectorISt4pairIP4exprjELb0EjE4sizeEv.exit

for.end.thread:                                   ; preds = %entry
  %m_qhead19 = getelementptr inbounds i8, ptr %this, i64 80
  br label %_ZN6vectorISt4pairIP4exprjELb0EjE6shrinkEj.exit

_ZNK6vectorISt4pairIP4exprjELb0EjE4sizeEv.exit:   ; preds = %entry
  %arrayidx.i = getelementptr inbounds i8, ptr %0, i64 -4
  %1 = load i32, ptr %arrayidx.i, align 4
  %m_qhead = getelementptr inbounds i8, ptr %this, i64 80
  %2 = load i32, ptr %m_qhead, align 8
  %cmp10 = icmp ult i32 %2, %1
  br i1 %cmp10, label %for.body.preheader, label %if.then.i

for.body.preheader:                               ; preds = %_ZNK6vectorISt4pairIP4exprjELb0EjE4sizeEv.exit
  %3 = zext i32 %2 to i64
  %4 = sub i32 %1, %2
  br label %for.body

for.body:                                         ; preds = %for.body.preheader, %for.body
  %indvars.iv13 = phi i64 [ 0, %for.body.preheader ], [ %indvars.iv.next14, %for.body ]
  %indvars.iv = phi i64 [ %3, %for.body.preheader ], [ %indvars.iv.next, %for.body ]
  %5 = load ptr, ptr %m_queue, align 8
  %arrayidx.i5 = getelementptr inbounds %"struct.std::pair", ptr %5, i64 %indvars.iv
  %arrayidx.i7 = getelementptr inbounds %"struct.std::pair", ptr %5, i64 %indvars.iv13
  %6 = load ptr, ptr %arrayidx.i5, align 8
  store ptr %6, ptr %arrayidx.i7, align 8
  %second.i = getelementptr inbounds i8, ptr %arrayidx.i5, i64 8
  %7 = load i32, ptr %second.i, align 8
  %second3.i = getelementptr inbounds i8, ptr %arrayidx.i7, i64 8
  store i32 %7, ptr %second3.i, align 8
  %indvars.iv.next = add nuw nsw i64 %indvars.iv, 1
  %indvars.iv.next14 = add nuw nsw i64 %indvars.iv13, 1
  %lftr.wideiv = trunc i64 %indvars.iv.next14 to i32
  %exitcond.not = icmp eq i32 %4, %lftr.wideiv
  br i1 %exitcond.not, label %for.end, label %for.body, !llvm.loop !4

for.end:                                          ; preds = %for.body
  %.pre = load ptr, ptr %m_queue, align 8
  %tobool.not.i = icmp eq ptr %.pre, null
  br i1 %tobool.not.i, label %_ZN6vectorISt4pairIP4exprjELb0EjE6shrinkEj.exit, label %if.then.i

if.then.i:                                        ; preds = %_ZNK6vectorISt4pairIP4exprjELb0EjE4sizeEv.exit, %for.end
  %j.0.lcssa31 = phi i32 [ %4, %for.end ], [ 0, %_ZNK6vectorISt4pairIP4exprjELb0EjE4sizeEv.exit ]
  %8 = phi ptr [ %.pre, %for.end ], [ %0, %_ZNK6vectorISt4pairIP4exprjELb0EjE4sizeEv.exit ]
  %arrayidx.i8 = getelementptr inbounds i8, ptr %8, i64 -4
  store i32 %j.0.lcssa31, ptr %arrayidx.i8, align 4
  br label %_ZN6vectorISt4pairIP4exprjELb0EjE6shrinkEj.exit

_ZN6vectorISt4pairIP4exprjELb0EjE6shrinkEj.exit:  ; preds = %for.end.thread, %for.end, %if.then.i
  %m_qhead2125 = phi ptr [ %m_qhead19, %for.end.thread ], [ %m_qhead, %for.end ], [ %m_qhead, %if.then.i ]
  store i32 0, ptr %m_qhead2125, align 8
  ret void
}